; ModuleID = '16/623.c'
source_filename = "16/623.c"
target datalayout = "e-m:e-p270:32:32-p271:32:32-p272:64:64-i64:64-f80:128-n8:16:32:64-S128"
target triple = "x86_64-pc-linux-gnu"

@.str = private unnamed_addr constant [3 x i8] c"%d\00", align 1
@.str.1 = private unnamed_addr constant [4 x i8] c"%d\0A\00", align 1
@.str.2 = private unnamed_addr constant [6 x i8] c"%d%d\0A\00", align 1
@.str.3 = private unnamed_addr constant [8 x i8] c"%d%d%d\0A\00", align 1
@.str.4 = private unnamed_addr constant [10 x i8] c"%d%d%d%d\0A\00", align 1

; Function Attrs: noinline nounwind uwtable
define dso_local i32 @main() #0 {
  %1 = alloca i32, align 4
  %2 = alloca i32, align 4
  %3 = alloca i32, align 4
  %4 = alloca i32, align 4
  %5 = alloca i32, align 4
  %6 = alloca i32, align 4
  %7 = alloca i32, align 4
  %8 = alloca i32, align 4
  %9 = alloca i32, align 4
  %10 = alloca i32, align 4
  store i32 0, i32* %1, align 4
  %11 = call i32 (i8*, ...) @__isoc99_scanf(i8* getelementptr inbounds ([3 x i8], [3 x i8]* @.str, i64 0, i64 0), i32* %2)
  %12 = load i32, i32* %2, align 4
  %13 = srem i32 %12, 10
  store i32 %13, i32* %3, align 4
  %14 = load i32, i32* %2, align 4
  %15 = srem i32 %14, 100
  store i32 %15, i32* %4, align 4
  %16 = load i32, i32* %2, align 4
  %17 = srem i32 %16, 1000
  store i32 %17, i32* %5, align 4
  %18 = load i32, i32* %2, align 4
  %19 = srem i32 %18, 10000
  store i32 %19, i32* %6, align 4
  %20 = load i32, i32* %4, align 4
  %21 = load i32, i32* %3, align 4
  %22 = sub nsw i32 %20, %21
  %23 = sdiv i32 %22, 10
  store i32 %23, i32* %7, align 4
  %24 = load i32, i32* %5, align 4
  %25 = load i32, i32* %4, align 4
  %26 = sub nsw i32 %24, %25
  %27 = sdiv i32 %26, 100
  store i32 %27, i32* %8, align 4
  %28 = load i32, i32* %6, align 4
  %29 = load i32, i32* %5, align 4
  %30 = sub nsw i32 %28, %29
  %31 = sdiv i32 %30, 1000
  store i32 %31, i32* %9, align 4
  %32 = load i32, i32* %2, align 4
  %33 = icmp slt i32 %32, 10
  br i1 %33, label %34, label %37

34:                                               ; preds = %0
  %35 = load i32, i32* %3, align 4
  %36 = call i32 (i8*, ...) @printf(i8* getelementptr inbounds ([4 x i8], [4 x i8]* @.str.1, i64 0, i64 0), i32 %35)
  br label %60

37:                                               ; preds = %0
  %38 = load i32, i32* %2, align 4
  %39 = icmp slt i32 %38, 100
  br i1 %39, label %40, label %44

40:                                               ; preds = %37
  %41 = load i32, i32* %3, align 4
  %42 = load i32, i32* %7, align 4
  %43 = call i32 (i8*, ...) @printf(i8* getelementptr inbounds ([6 x i8], [6 x i8]* @.str.2, i64 0, i64 0), i32 %41, i32 %42)
  br label %59

44:                                               ; preds = %37
  %45 = load i32, i32* %2, align 4
  %46 = icmp slt i32 %45, 1000
  br i1 %46, label %47, label %52

47:                                               ; preds = %44
  %48 = load i32, i32* %3, align 4
  %49 = load i32, i32* %7, align 4
  %50 = load i32, i32* %8, align 4
  %51 = call i32 (i8*, ...) @printf(i8* getelementptr inbounds ([8 x i8], [8 x i8]* @.str.3, i64 0, i64 0), i32 %48, i32 %49, i32 %50)
  br label %58

52:                                               ; preds = %44
  %53 = load i32, i32* %3, align 4
  %54 = load i32, i32* %7, align 4
  %55 = load i32, i32* %8, align 4
  %56 = load i32, i32* %9, align 4
  %57 = call i32 (i8*, ...) @printf(i8* getelementptr inbounds ([10 x i8], [10 x i8]* @.str.4, i64 0, i64 0), i32 %53, i32 %54, i32 %55, i32 %56)
  br label %58

58:                                               ; preds = %52, %47
  br label %59

59:                                               ; preds = %58, %40
  br label %60

60:                                               ; preds = %59, %34
  ret i32 0
}

declare dso_local i32 @__isoc99_scanf(i8*, ...) #1

declare dso_local i32 @printf(i8*, ...) #1


!llvm.module.flags = !{!0}
!llvm.ident = !{!1}

!0 = !{i32 1, !"wchar_size", i32 4}
!1 = !{!"clang version 10.0.0-4ubuntu1 "}
